; Function Attrs: mustprogress uwtable
define hidden noundef nonnull ptr @_ZN17duckdb_libpgquery11palloc0fastEm(i64 noundef %0) local_unnamed_addr #0 {
  %2 = add i64 %0, 15
  %3 = and i64 %2, -8
  %4 = tail call align 8 ptr @llvm.threadlocal.address.p0(ptr align 8 @_ZN17duckdb_libpgqueryL15pg_parser_stateE)
  %5 = getelementptr inbounds nuw i8, ptr %4, i64 8200
  %6 = load i64, ptr %5, align 8, !tbaa !3
  %7 = add i64 %6, %3
  %8 = icmp ugt i64 %7, 10240
  br i1 %8, label %9, label %_ZN17duckdb_libpgquery6pallocEm.exit

9:                                                ; preds = %1
  tail call fastcc void @_ZN17duckdb_libpgqueryL12allocate_newEPNS_19pg_parser_state_strEm(ptr noundef %4, i64 noundef %3)
  %.pre.i = load i64, ptr %5, align 8, !tbaa !3
  br label %_ZN17duckdb_libpgquery6pallocEm.exit

_ZN17duckdb_libpgquery6pallocEm.exit:             ; preds = %1, %9
  %10 = phi i64 [ %.pre.i, %9 ], [ %6, %1 ]
  %11 = getelementptr inbounds nuw i8, ptr %4, i64 8216
  %12 = load ptr, ptr %11, align 8, !tbaa !11
  %13 = getelementptr inbounds nuw i8, ptr %4, i64 8208
  %14 = load i64, ptr %13, align 8, !tbaa !12
  %15 = getelementptr ptr, ptr %12, i64 %14
  %16 = getelementptr i8, ptr %15, i64 -8
  %17 = load ptr, ptr %16, align 8, !tbaa !13
  %18 = getelementptr inbounds nuw i8, ptr %17, i64 %10
  store i64 %0, ptr %18, align 1
  %19 = getelementptr inbounds nuw i8, ptr %18, i64 8
  tail call void @llvm.memset.p0.i64(ptr nonnull align 1 %19, i8 0, i64 %0, i1 false)
  %20 = load i64, ptr %5, align 8, !tbaa !3
  %21 = add i64 %20, %3
  store i64 %21, ptr %5, align 8, !tbaa !3
  ret ptr %19
}